target datalayout = "e-m:e-p270:32:32-p271:32:32-p272:64:64-i64:64-i128:128-f80:128-n8:16:32:64-S128"
target triple = "x86_64-pc-linux-gnu"

%struct.test_fixture = type { ptr, ptr, i32, i32, i32, ptr, i32, ptr }
%struct.ossl_cmp_msg_st = type { ptr, ptr, ptr, ptr, ptr, ptr }
%struct.ossl_cmp_pkibody_st = type { i32, %union.anon }
%union.anon = type { ptr }

@.str.14 = private unnamed_addr constant [31 x i8] c"../openssl/test/cmp_msg_test.c\00", align 1
@.str.40 = private unnamed_addr constant [19 x i8] c"test_cmp_create_rp\00", align 1
@.str.68 = private unnamed_addr constant [7 x i8] c"a text\00", align 1
@.str.69 = private unnamed_addr constant [3 x i8] c"CN\00", align 1
@.str.70 = private unnamed_addr constant [11 x i8] c"The Issuer\00", align 1
@.str.71 = private unnamed_addr constant [60 x i8] c"ossl_cmp_revrepcontent_get_CertId(rpmsg->body->value.rp, 0)\00", align 1
@.str.72 = private unnamed_addr constant [59 x i8] c"ossl_cmp_revrepcontent_get_pkisi(rpmsg->body->value.rp, 0)\00", align 1

; Function Attrs: nounwind uwtable
define internal void @tear_down(ptr noundef %0) #0 {
  %2 = alloca ptr, align 8
  store ptr %0, ptr %2, align 8, !tbaa !17
  %3 = load ptr, ptr %2, align 8, !tbaa !17
  %4 = getelementptr inbounds nuw %struct.test_fixture, ptr %3, i32 0, i32 1
  %5 = load ptr, ptr %4, align 8, !tbaa !28
  call void @OSSL_CMP_CTX_free(ptr noundef %5)
  %6 = load ptr, ptr %2, align 8, !tbaa !17
  %7 = getelementptr inbounds nuw %struct.test_fixture, ptr %6, i32 0, i32 5
  %8 = load ptr, ptr %7, align 8, !tbaa !37
  call void @OSSL_CMP_MSG_free(ptr noundef %8)
  %9 = load ptr, ptr %2, align 8, !tbaa !17
  %10 = getelementptr inbounds nuw %struct.test_fixture, ptr %9, i32 0, i32 7
  %11 = load ptr, ptr %10, align 8, !tbaa !30
  call void @OSSL_CMP_PKISI_free(ptr noundef %11)
  %12 = load ptr, ptr %2, align 8, !tbaa !17
  call void @CRYPTO_free(ptr noundef %12, ptr noundef @.str.14, i32 noundef 43)
  ret void
}

; Function Attrs: nounwind uwtable
define internal i32 @execute_rp_create(ptr noundef %0) #0 {
  %2 = alloca ptr, align 8
  %3 = alloca ptr, align 8
  %4 = alloca ptr, align 8
  %5 = alloca ptr, align 8
  %6 = alloca ptr, align 8
  %7 = alloca ptr, align 8
  %8 = alloca i32, align 4
  store ptr %0, ptr %2, align 8, !tbaa !17
  call void @llvm.lifetime.start.p0(i64 8, ptr %3) #4
  %9 = call ptr @OSSL_CMP_STATUSINFO_new(i32 noundef 33, i32 noundef 44, ptr noundef @.str.68)
  store ptr %9, ptr %3, align 8, !tbaa !41
  call void @llvm.lifetime.start.p0(i64 8, ptr %4) #4
  %10 = call ptr @X509_NAME_new()
  store ptr %10, ptr %4, align 8, !tbaa !42
  call void @llvm.lifetime.start.p0(i64 8, ptr %5) #4
  %11 = call ptr @ASN1_INTEGER_new()
  store ptr %11, ptr %5, align 8, !tbaa !44
  call void @llvm.lifetime.start.p0(i64 8, ptr %6) #4
  store ptr null, ptr %6, align 8, !tbaa !46
  call void @llvm.lifetime.start.p0(i64 8, ptr %7) #4
  store ptr null, ptr %7, align 8, !tbaa !38
  call void @llvm.lifetime.start.p0(i64 4, ptr %8) #4
  store i32 0, ptr %8, align 4, !tbaa !19
  %12 = load ptr, ptr %3, align 8, !tbaa !41
  %13 = icmp eq ptr %12, null
  br i1 %13, label %20, label %14

14:                                               ; preds = %1
  %15 = load ptr, ptr %4, align 8, !tbaa !42
  %16 = icmp eq ptr %15, null
  br i1 %16, label %20, label %17

17:                                               ; preds = %14
  %18 = load ptr, ptr %5, align 8, !tbaa !44
  %19 = icmp eq ptr %18, null
  br i1 %19, label %20, label %21

20:                                               ; preds = %17, %14, %1
  br label %64

21:                                               ; preds = %17
  %22 = load ptr, ptr %4, align 8, !tbaa !42
  %23 = call i32 @X509_NAME_add_entry_by_txt(ptr noundef %22, ptr noundef @.str.69, i32 noundef 4097, ptr noundef @.str.70, i32 noundef -1, i32 noundef -1, i32 noundef 0)
  %24 = icmp ne i32 %23, 0
  br i1 %24, label %25, label %42

25:                                               ; preds = %21
  %26 = load ptr, ptr %5, align 8, !tbaa !44
  %27 = call i32 @ASN1_INTEGER_set(ptr noundef %26, i64 noundef 99)
  %28 = icmp ne i32 %27, 0
  br i1 %28, label %29, label %42

29:                                               ; preds = %25
  %30 = load ptr, ptr %4, align 8, !tbaa !42
  %31 = load ptr, ptr %5, align 8, !tbaa !44
  %32 = call ptr @OSSL_CRMF_CERTID_gen(ptr noundef %30, ptr noundef %31)
  store ptr %32, ptr %6, align 8, !tbaa !46
  %33 = icmp eq ptr %32, null
  br i1 %33, label %42, label %34

34:                                               ; preds = %29
  %35 = load ptr, ptr %2, align 8, !tbaa !17
  %36 = getelementptr inbounds nuw %struct.test_fixture, ptr %35, i32 0, i32 1
  %37 = load ptr, ptr %36, align 8, !tbaa !28
  %38 = load ptr, ptr %3, align 8, !tbaa !41
  %39 = load ptr, ptr %6, align 8, !tbaa !46
  %40 = call ptr @ossl_cmp_rp_new(ptr noundef %37, ptr noundef %38, ptr noundef %39, i32 noundef 1)
  store ptr %40, ptr %7, align 8, !tbaa !38
  %41 = icmp eq ptr %40, null
  br i1 %41, label %42, label %43

42:                                               ; preds = %34, %29, %25, %21
  br label %64

43:                                               ; preds = %34
  %44 = load ptr, ptr %7, align 8, !tbaa !38
  %45 = getelementptr inbounds nuw %struct.ossl_cmp_msg_st, ptr %44, i32 0, i32 1
  %46 = load ptr, ptr %45, align 8, !tbaa !48
  %47 = getelementptr inbounds nuw %struct.ossl_cmp_pkibody_st, ptr %46, i32 0, i32 1
  %48 = load ptr, ptr %47, align 8, !tbaa !53
  %49 = call ptr @ossl_cmp_revrepcontent_get_CertId(ptr noundef %48, i32 noundef 0)
  %50 = call i32 @test_ptr(ptr noundef @.str.14, i32 noundef 444, ptr noundef @.str.71, ptr noundef %49)
  %51 = icmp ne i32 %50, 0
  br i1 %51, label %53, label %52

52:                                               ; preds = %43
  br label %64

53:                                               ; preds = %43
  %54 = load ptr, ptr %7, align 8, !tbaa !38
  %55 = getelementptr inbounds nuw %struct.ossl_cmp_msg_st, ptr %54, i32 0, i32 1
  %56 = load ptr, ptr %55, align 8, !tbaa !48
  %57 = getelementptr inbounds nuw %struct.ossl_cmp_pkibody_st, ptr %56, i32 0, i32 1
  %58 = load ptr, ptr %57, align 8, !tbaa !53
  %59 = call ptr @ossl_cmp_revrepcontent_get_pkisi(ptr noundef %58, i32 noundef 0)
  %60 = call i32 @test_ptr(ptr noundef @.str.14, i32 noundef 447, ptr noundef @.str.72, ptr noundef %59)
  %61 = icmp ne i32 %60, 0
  br i1 %61, label %63, label %62

62:                                               ; preds = %53
  br label %64

63:                                               ; preds = %53
  store i32 1, ptr %8, align 4, !tbaa !19
  br label %64

64:                                               ; preds = %63, %62, %52, %42, %20
  %65 = load ptr, ptr %5, align 8, !tbaa !44
  call void @ASN1_INTEGER_free(ptr noundef %65)
  %66 = load ptr, ptr %4, align 8, !tbaa !42
  call void @X509_NAME_free(ptr noundef %66)
  %67 = load ptr, ptr %6, align 8, !tbaa !46
  call void @OSSL_CRMF_CERTID_free(ptr noundef %67)
  %68 = load ptr, ptr %3, align 8, !tbaa !41
  call void @OSSL_CMP_PKISI_free(ptr noundef %68)
  %69 = load ptr, ptr %7, align 8, !tbaa !38
  call void @OSSL_CMP_MSG_free(ptr noundef %69)
  %70 = load i32, ptr %8, align 4, !tbaa !19
  call void @llvm.lifetime.end.p0(i64 4, ptr %8) #4
  call void @llvm.lifetime.end.p0(i64 8, ptr %7) #4
  call void @llvm.lifetime.end.p0(i64 8, ptr %6) #4
  call void @llvm.lifetime.end.p0(i64 8, ptr %5) #4
  call void @llvm.lifetime.end.p0(i64 8, ptr %4) #4
  call void @llvm.lifetime.end.p0(i64 8, ptr %3) #4
  ret i32 %70
}

; Function Attrs: nounwind uwtable
define internal i32 @test_cmp_create_rp() #0 {
  %1 = alloca i32, align 4
  %2 = alloca ptr, align 8
  %3 = alloca i32, align 4
  %4 = alloca i32, align 4
  call void @llvm.lifetime.start.p0(i64 8, ptr %2) #4
  %5 = call ptr @set_up(ptr noundef @.str.40)
  store ptr %5, ptr %2, align 8, !tbaa !17
  call void @llvm.lifetime.start.p0(i64 4, ptr %3) #4
  store i32 0, ptr %3, align 4, !tbaa !19
  %6 = load ptr, ptr %2, align 8, !tbaa !17
  %7 = icmp eq ptr %6, null
  br i1 %7, label %8, label %9

8:                                                ; preds = %0
  store i32 0, ptr %1, align 4
  store i32 1, ptr %4, align 4
  br label %18

9:                                                ; preds = %0
  %10 = load ptr, ptr %2, align 8, !tbaa !17
  %11 = icmp ne ptr %10, null
  br i1 %11, label %12, label %16

12:                                               ; preds = %9
  %13 = load ptr, ptr %2, align 8, !tbaa !17
  %14 = call i32 @execute_rp_create(ptr noundef %13)
  store i32 %14, ptr %3, align 4, !tbaa !19
  %15 = load ptr, ptr %2, align 8, !tbaa !17
  call void @tear_down(ptr noundef %15)
  br label %16

16:                                               ; preds = %12, %9
  %17 = load i32, ptr %3, align 4, !tbaa !19
  store i32 %17, ptr %1, align 4
  store i32 1, ptr %4, align 4
  br label %18

18:                                               ; preds = %16, %8
  call void @llvm.lifetime.end.p0(i64 4, ptr %3) #4
  call void @llvm.lifetime.end.p0(i64 8, ptr %2) #4
  %19 = load i32, ptr %1, align 4
  ret i32 %19
}