; Function Attrs: nounwind uwtable
define internal range(i32 0, 2) i32 @test_cmp_create_rp() #0 {
  %1 = tail call fastcc ptr @set_up(ptr noundef nonnull @.str.40)
  %2 = icmp eq ptr %1, null
  br i1 %2, label %41, label %3

3:                                                ; preds = %0
  %4 = tail call ptr @OSSL_CMP_STATUSINFO_new(i32 noundef 33, i32 noundef 44, ptr noundef nonnull @.str.68) #4
  %5 = tail call ptr @X509_NAME_new() #4
  %6 = tail call ptr @ASN1_INTEGER_new() #4
  %7 = icmp eq ptr %4, null
  %8 = icmp eq ptr %5, null
  %or.cond.i = select i1 %7, i1 true, i1 %8
  %9 = icmp eq ptr %6, null
  %or.cond3.i = select i1 %or.cond.i, i1 true, i1 %9
  br i1 %or.cond3.i, label %execute_rp_create.exit, label %10

10:                                               ; preds = %3
  %11 = tail call i32 @X509_NAME_add_entry_by_txt(ptr noundef nonnull %5, ptr noundef nonnull @.str.69, i32 noundef 4097, ptr noundef nonnull @.str.70, i32 noundef -1, i32 noundef -1, i32 noundef 0) #4
  %.not.i = icmp eq i32 %11, 0
  br i1 %.not.i, label %execute_rp_create.exit, label %12

12:                                               ; preds = %10
  %13 = tail call i32 @ASN1_INTEGER_set(ptr noundef nonnull %6, i64 noundef 99) #4
  %.not28.i = icmp eq i32 %13, 0
  br i1 %.not28.i, label %execute_rp_create.exit, label %14

14:                                               ; preds = %12
  %15 = tail call ptr @OSSL_CRMF_CERTID_gen(ptr noundef nonnull %5, ptr noundef nonnull %6) #4
  %16 = icmp eq ptr %15, null
  br i1 %16, label %execute_rp_create.exit, label %17

17:                                               ; preds = %14
  %18 = getelementptr inbounds nuw i8, ptr %1, i64 8
  %19 = load ptr, ptr %18, align 8, !tbaa !25
  %20 = tail call ptr @ossl_cmp_rp_new(ptr noundef %19, ptr noundef nonnull %4, ptr noundef nonnull %15, i32 noundef 1) #4
  %21 = icmp eq ptr %20, null
  br i1 %21, label %execute_rp_create.exit, label %22

22:                                               ; preds = %17
  %23 = getelementptr inbounds nuw i8, ptr %20, i64 8
  %24 = load ptr, ptr %23, align 8, !tbaa !31
  %25 = getelementptr inbounds nuw i8, ptr %24, i64 8
  %26 = load ptr, ptr %25, align 8, !tbaa !37
  %27 = tail call ptr @ossl_cmp_revrepcontent_get_CertId(ptr noundef %26, i32 noundef 0) #4
  %28 = tail call i32 @test_ptr(ptr noundef nonnull @.str.14, i32 noundef 444, ptr noundef nonnull @.str.71, ptr noundef %27) #4
  %.not29.i = icmp eq i32 %28, 0
  br i1 %.not29.i, label %execute_rp_create.exit, label %29

29:                                               ; preds = %22
  %30 = load ptr, ptr %23, align 8, !tbaa !31
  %31 = getelementptr inbounds nuw i8, ptr %30, i64 8
  %32 = load ptr, ptr %31, align 8, !tbaa !37
  %33 = tail call ptr @ossl_cmp_revrepcontent_get_pkisi(ptr noundef %32, i32 noundef 0) #4
  %34 = tail call i32 @test_ptr(ptr noundef nonnull @.str.14, i32 noundef 447, ptr noundef nonnull @.str.72, ptr noundef %33) #4
  %.not30.i = icmp ne i32 %34, 0
  %spec.select.i = zext i1 %.not30.i to i32
  br label %execute_rp_create.exit

execute_rp_create.exit:                           ; preds = %3, %10, %12, %14, %17, %22, %29
  %.021.i = phi ptr [ null, %3 ], [ null, %14 ], [ %15, %17 ], [ %15, %22 ], [ null, %12 ], [ null, %10 ], [ %15, %29 ]
  %.020.i = phi ptr [ null, %3 ], [ null, %14 ], [ null, %17 ], [ %20, %22 ], [ null, %12 ], [ null, %10 ], [ %20, %29 ]
  %.0.i = phi i32 [ 0, %3 ], [ 0, %14 ], [ 0, %17 ], [ 0, %22 ], [ 0, %12 ], [ 0, %10 ], [ %spec.select.i, %29 ]
  tail call void @ASN1_INTEGER_free(ptr noundef %6) #4
  tail call void @X509_NAME_free(ptr noundef %5) #4
  tail call void @OSSL_CRMF_CERTID_free(ptr noundef %.021.i) #4
  tail call void @OSSL_CMP_PKISI_free(ptr noundef %4) #4
  tail call void @OSSL_CMP_MSG_free(ptr noundef %.020.i) #4
  %35 = getelementptr inbounds nuw i8, ptr %1, i64 8
  %36 = load ptr, ptr %35, align 8, !tbaa !25
  tail call void @OSSL_CMP_CTX_free(ptr noundef %36) #4
  %37 = getelementptr inbounds nuw i8, ptr %1, i64 32
  %38 = load ptr, ptr %37, align 8, !tbaa !26
  tail call void @OSSL_CMP_MSG_free(ptr noundef %38) #4
  %39 = getelementptr inbounds nuw i8, ptr %1, i64 48
  %40 = load ptr, ptr %39, align 8, !tbaa !27
  tail call void @OSSL_CMP_PKISI_free(ptr noundef %40) #4
  tail call void @CRYPTO_free(ptr noundef nonnull %1, ptr noundef nonnull @.str.14, i32 noundef 43) #4
  br label %41

41:                                               ; preds = %0, %execute_rp_create.exit
  %.05 = phi i32 [ %.0.i, %execute_rp_create.exit ], [ 0, %0 ]
  ret i32 %.05
}